; ModuleID = '30/2713.c'
source_filename = "30/2713.c"
target datalayout = "e-m:e-p270:32:32-p271:32:32-p272:64:64-i64:64-f80:128-n8:16:32:64-S128"
target triple = "x86_64-pc-linux-gnu"

@.str = private unnamed_addr constant [3 x i8] c"%d\00", align 1

; Function Attrs: noinline nounwind uwtable
define dso_local i32 @main() #0 {
  %1 = alloca i32, align 4
  %2 = alloca i32, align 4
  %3 = alloca i32, align 4
  %4 = alloca i32, align 4
  store i32 0, i32* %1, align 4
  store i32 0, i32* %4, align 4
  %5 = call i32 (i8*, ...) @__isoc99_scanf(i8* getelementptr inbounds ([3 x i8], [3 x i8]* @.str, i64 0, i64 0), i32* %2)
  store i32 0, i32* %3, align 4
  br label %6

6:                                                ; preds = %49, %0
  %7 = load i32, i32* %3, align 4
  %8 = load i32, i32* %2, align 4
  %9 = icmp sle i32 %7, %8
  br i1 %9, label %10, label %52

10:                                               ; preds = %6
  %11 = load i32, i32* %3, align 4
  %12 = srem i32 %11, 7
  %13 = icmp eq i32 %12, 0
  br i1 %13, label %42, label %14

14:                                               ; preds = %10
  %15 = load i32, i32* %3, align 4
  %16 = srem i32 %15, 10
  %17 = icmp eq i32 %16, 7
  br i1 %17, label %42, label %18

18:                                               ; preds = %14
  %19 = load i32, i32* %3, align 4
  %20 = icmp eq i32 %19, 71
  br i1 %20, label %42, label %21

21:                                               ; preds = %18
  %22 = load i32, i32* %3, align 4
  %23 = icmp eq i32 %22, 72
  br i1 %23, label %42, label %24

24:                                               ; preds = %21
  %25 = load i32, i32* %3, align 4
  %26 = icmp eq i32 %25, 73
  br i1 %26, label %42, label %27

27:                                               ; preds = %24
  %28 = load i32, i32* %3, align 4
  %29 = icmp eq i32 %28, 74
  br i1 %29, label %42, label %30

30:                                               ; preds = %27
  %31 = load i32, i32* %3, align 4
  %32 = icmp eq i32 %31, 75
  br i1 %32, label %42, label %33

33:                                               ; preds = %30
  %34 = load i32, i32* %3, align 4
  %35 = icmp eq i32 %34, 76
  br i1 %35, label %42, label %36

36:                                               ; preds = %33
  %37 = load i32, i32* %3, align 4
  %38 = icmp eq i32 %37, 78
  br i1 %38, label %42, label %39

39:                                               ; preds = %36
  %40 = load i32, i32* %3, align 4
  %41 = icmp eq i32 %40, 79
  br i1 %41, label %42, label %43

42:                                               ; preds = %39, %36, %33, %30, %27, %24, %21, %18, %14, %10
  br label %49

43:                                               ; preds = %39
  %44 = load i32, i32* %3, align 4
  %45 = load i32, i32* %3, align 4
  %46 = mul nsw i32 %44, %45
  %47 = load i32, i32* %4, align 4
  %48 = add nsw i32 %47, %46
  store i32 %48, i32* %4, align 4
  br label %49

49:                                               ; preds = %43, %42
  %50 = load i32, i32* %3, align 4
  %51 = add nsw i32 %50, 1
  store i32 %51, i32* %3, align 4
  br label %6

52:                                               ; preds = %6
  %53 = load i32, i32* %4, align 4
  %54 = call i32 (i8*, ...) @printf(i8* getelementptr inbounds ([3 x i8], [3 x i8]* @.str, i64 0, i64 0), i32 %53)
  ret i32 0
}

declare dso_local i32 @__isoc99_scanf(i8*, ...) #1

declare dso_local i32 @printf(i8*, ...) #1


!llvm.module.flags = !{!0}
!llvm.ident = !{!1}

!0 = !{i32 1, !"wchar_size", i32 4}
!1 = !{!"clang version 10.0.0-4ubuntu1 "}
